; ModuleID = 'source-C-CXX/36/531.cpp'
source_filename = "source-C-CXX/36/531.cpp"
target datalayout = "e-m:e-p270:32:32-p271:32:32-p272:64:64-i64:64-f80:128-n8:16:32:64-S128"
target triple = "x86_64-pc-linux-gnu"

%"class.std::ios_base::Init" = type { i8 }
%"class.std::basic_istream" = type { i32 (...)**, i64, %"class.std::basic_ios" }
%"class.std::basic_ios" = type { %"class.std::ios_base", %"class.std::basic_ostream"*, i8, i8, %"class.std::basic_streambuf"*, %"class.std::ctype"*, %"class.std::num_put"*, %"class.std::num_get"* }
%"class.std::ios_base" = type { i32 (...)**, i64, i64, i32, i32, i32, %"struct.std::ios_base::_Callback_list"*, %"struct.std::ios_base::_Words", [8 x %"struct.std::ios_base::_Words"], i32, %"struct.std::ios_base::_Words"*, %"class.std::locale" }
%"struct.std::ios_base::_Callback_list" = type { %"struct.std::ios_base::_Callback_list"*, void (i32, %"class.std::ios_base"*, i32)*, i32, i32 }
%"struct.std::ios_base::_Words" = type { i8*, i64 }
%"class.std::locale" = type { %"class.std::locale::_Impl"* }
%"class.std::locale::_Impl" = type { i32, %"class.std::locale::facet"**, i64, %"class.std::locale::facet"**, i8** }
%"class.std::locale::facet" = type <{ i32 (...)**, i32, [4 x i8] }>
%"class.std::basic_ostream" = type { i32 (...)**, %"class.std::basic_ios" }
%"class.std::basic_streambuf" = type { i32 (...)**, i8*, i8*, i8*, i8*, i8*, i8*, %"class.std::locale" }
%"class.std::ctype" = type <{ %"class.std::locale::facet.base", [4 x i8], %struct.__locale_struct*, i8, [7 x i8], i32*, i32*, i16*, i8, [256 x i8], [256 x i8], i8, [6 x i8] }>
%"class.std::locale::facet.base" = type <{ i32 (...)**, i32 }>
%struct.__locale_struct = type { [13 x %struct.__locale_data*], i16*, i32*, i32*, [13 x i8*] }
%struct.__locale_data = type opaque
%"class.std::num_put" = type { %"class.std::locale::facet.base", [4 x i8] }
%"class.std::num_get" = type { %"class.std::locale::facet.base", [4 x i8] }

@_ZStL8__ioinit = internal global %"class.std::ios_base::Init" zeroinitializer, align 1
@__dso_handle = external hidden global i8
@_ZSt3cin = external global %"class.std::basic_istream", align 8
@_ZSt4cout = external global %"class.std::basic_ostream", align 8
@.str = private unnamed_addr constant [3 x i8] c"no\00", align 1
@llvm.global_ctors = appending global [1 x { i32, void ()*, i8* }] [{ i32, void ()*, i8* } { i32 65535, void ()* @_GLOBAL__sub_I_531.cpp, i8* null }]

declare void @_ZNSt8ios_base4InitC1Ev(%"class.std::ios_base::Init"* nonnull align 1 dereferenceable(1)) unnamed_addr #0

; Function Attrs: nounwind
declare void @_ZNSt8ios_base4InitD1Ev(%"class.std::ios_base::Init"* nonnull align 1 dereferenceable(1)) unnamed_addr #1

; Function Attrs: nofree nounwind
declare i32 @__cxa_atexit(void (i8*)*, i8*, i8*) local_unnamed_addr #2

; Function Attrs: mustprogress norecurse sspstrong uwtable
define dso_local i32 @main() local_unnamed_addr #3 {
  %1 = alloca i8, align 1
  %2 = alloca [100 x i8], align 16
  %3 = alloca i32, align 4
  %4 = getelementptr inbounds [100 x i8], [100 x i8]* %2, i64 0, i64 0
  call void @llvm.lifetime.start.p0i8(i64 100, i8* nonnull %4) #8
  %5 = bitcast i32* %3 to i8*
  call void @llvm.lifetime.start.p0i8(i64 4, i8* nonnull %5) #8
  %6 = call nonnull align 8 dereferenceable(16) %"class.std::basic_istream"* @_ZNSi10_M_extractIjEERSiRT_(%"class.std::basic_istream"* nonnull align 8 dereferenceable(16) @_ZSt3cin, i32* nonnull align 4 dereferenceable(4) %3)
  %7 = load i32, i32* %3, align 4, !tbaa !5
  %8 = icmp eq i32 %7, 0
  br i1 %8, label %122, label %9

9:                                                ; preds = %0, %118
  %10 = phi i32 [ %83, %118 ], [ undef, %0 ]
  %11 = phi i32 [ %119, %118 ], [ 0, %0 ]
  call void @_ZSt17__istream_extractRSiPcl(%"class.std::basic_istream"* nonnull align 8 dereferenceable(16) @_ZSt3cin, i8* nonnull %4, i64 100)
  %12 = call i64 @strlen(i8* noundef nonnull %4) #9
  %13 = icmp eq i64 %12, 0
  br i1 %13, label %14, label %16

14:                                               ; preds = %9
  %15 = zext i32 %10 to i64
  br label %80

16:                                               ; preds = %9
  %17 = getelementptr inbounds [100 x i8], [100 x i8]* %2, i64 0, i64 %12
  br label %18

18:                                               ; preds = %16, %74
  %19 = phi i64 [ %76, %74 ], [ 0, %16 ]
  %20 = phi i32 [ %75, %74 ], [ 0, %16 ]
  %21 = getelementptr inbounds [100 x i8], [100 x i8]* %2, i64 0, i64 %19
  %22 = load i8, i8* %21, align 1, !tbaa !9
  br label %23

23:                                               ; preds = %18, %31
  %24 = phi i64 [ 0, %18 ], [ %33, %31 ]
  %25 = phi i32 [ 0, %18 ], [ %32, %31 ]
  %26 = getelementptr inbounds [100 x i8], [100 x i8]* %2, i64 0, i64 %24
  %27 = load i8, i8* %26, align 1, !tbaa !9
  %28 = icmp ne i8 %22, %27
  %29 = icmp eq i32 %25, %20
  %30 = select i1 %28, i1 true, i1 %29
  br i1 %30, label %31, label %35

31:                                               ; preds = %23
  %32 = add i32 %25, 1
  %33 = zext i32 %32 to i64
  %34 = icmp ugt i64 %12, %33
  br i1 %34, label %23, label %35, !llvm.loop !10

35:                                               ; preds = %31, %23
  %36 = phi i32 [ %25, %23 ], [ %32, %31 ]
  %37 = zext i32 %36 to i64
  %38 = icmp eq i64 %12, %37
  br i1 %38, label %39, label %74

39:                                               ; preds = %35
  %40 = load i8, i8* %17, align 1, !tbaa !9
  %41 = icmp eq i8 %22, %40
  br i1 %41, label %74, label %42

42:                                               ; preds = %39
  %43 = zext i32 %36 to i64
  call void @llvm.lifetime.start.p0i8(i64 1, i8* nonnull %1)
  store i8 %22, i8* %1, align 1, !tbaa !9
  %44 = call nonnull align 8 dereferenceable(8) %"class.std::basic_ostream"* @_ZSt16__ostream_insertIcSt11char_traitsIcEERSt13basic_ostreamIT_T0_ES6_PKS3_l(%"class.std::basic_ostream"* nonnull align 8 dereferenceable(8) @_ZSt4cout, i8* nonnull %1, i64 1)
  call void @llvm.lifetime.end.p0i8(i64 1, i8* nonnull %1)
  %45 = bitcast %"class.std::basic_ostream"* %44 to i8**
  %46 = load i8*, i8** %45, align 8, !tbaa !12
  %47 = getelementptr i8, i8* %46, i64 -24
  %48 = bitcast i8* %47 to i64*
  %49 = load i64, i64* %48, align 8
  %50 = bitcast %"class.std::basic_ostream"* %44 to i8*
  %51 = add nsw i64 %49, 240
  %52 = getelementptr inbounds i8, i8* %50, i64 %51
  %53 = bitcast i8* %52 to %"class.std::ctype"**
  %54 = load %"class.std::ctype"*, %"class.std::ctype"** %53, align 8, !tbaa !14
  %55 = icmp eq %"class.std::ctype"* %54, null
  br i1 %55, label %56, label %57

56:                                               ; preds = %42
  call void @_ZSt16__throw_bad_castv() #10
  unreachable

57:                                               ; preds = %42
  %58 = getelementptr inbounds %"class.std::ctype", %"class.std::ctype"* %54, i64 0, i32 8
  %59 = load i8, i8* %58, align 8, !tbaa !18
  %60 = icmp eq i8 %59, 0
  br i1 %60, label %64, label %61

61:                                               ; preds = %57
  %62 = getelementptr inbounds %"class.std::ctype", %"class.std::ctype"* %54, i64 0, i32 9, i64 10
  %63 = load i8, i8* %62, align 1, !tbaa !9
  br label %70

64:                                               ; preds = %57
  call void @_ZNKSt5ctypeIcE13_M_widen_initEv(%"class.std::ctype"* nonnull align 8 dereferenceable(570) %54)
  %65 = bitcast %"class.std::ctype"* %54 to i8 (%"class.std::ctype"*, i8)***
  %66 = load i8 (%"class.std::ctype"*, i8)**, i8 (%"class.std::ctype"*, i8)*** %65, align 8, !tbaa !12
  %67 = getelementptr inbounds i8 (%"class.std::ctype"*, i8)*, i8 (%"class.std::ctype"*, i8)** %66, i64 6
  %68 = load i8 (%"class.std::ctype"*, i8)*, i8 (%"class.std::ctype"*, i8)** %67, align 8
  %69 = call signext i8 %68(%"class.std::ctype"* nonnull align 8 dereferenceable(570) %54, i8 signext 10)
  br label %70

70:                                               ; preds = %61, %64
  %71 = phi i8 [ %63, %61 ], [ %69, %64 ]
  %72 = call nonnull align 8 dereferenceable(8) %"class.std::basic_ostream"* @_ZNSo3putEc(%"class.std::basic_ostream"* nonnull align 8 dereferenceable(8) %44, i8 signext %71)
  %73 = call nonnull align 8 dereferenceable(8) %"class.std::basic_ostream"* @_ZNSo5flushEv(%"class.std::basic_ostream"* nonnull align 8 dereferenceable(8) %72)
  br label %80

74:                                               ; preds = %35, %39
  %75 = add i32 %20, 1
  %76 = zext i32 %75 to i64
  %77 = icmp ugt i64 %12, %76
  br i1 %77, label %18, label %78, !llvm.loop !20

78:                                               ; preds = %74
  %79 = zext i32 %36 to i64
  br label %80

80:                                               ; preds = %78, %14, %70
  %81 = phi i64 [ %43, %70 ], [ %15, %14 ], [ %79, %78 ]
  %82 = phi i32 [ %20, %70 ], [ 0, %14 ], [ %75, %78 ]
  %83 = phi i32 [ %36, %70 ], [ %10, %14 ], [ %36, %78 ]
  %84 = zext i32 %82 to i64
  %85 = call i64 @strlen(i8* noundef nonnull %4) #9
  %86 = icmp ne i64 %85, %84
  %87 = icmp eq i64 %85, %81
  %88 = select i1 %86, i1 true, i1 %87
  br i1 %88, label %118, label %89

89:                                               ; preds = %80
  %90 = call nonnull align 8 dereferenceable(8) %"class.std::basic_ostream"* @_ZSt16__ostream_insertIcSt11char_traitsIcEERSt13basic_ostreamIT_T0_ES6_PKS3_l(%"class.std::basic_ostream"* nonnull align 8 dereferenceable(8) @_ZSt4cout, i8* nonnull getelementptr inbounds ([3 x i8], [3 x i8]* @.str, i64 0, i64 0), i64 2)
  %91 = load i8*, i8** bitcast (%"class.std::basic_ostream"* @_ZSt4cout to i8**), align 8, !tbaa !12
  %92 = getelementptr i8, i8* %91, i64 -24
  %93 = bitcast i8* %92 to i64*
  %94 = load i64, i64* %93, align 8
  %95 = add nsw i64 %94, 240
  %96 = getelementptr inbounds i8, i8* bitcast (%"class.std::basic_ostream"* @_ZSt4cout to i8*), i64 %95
  %97 = bitcast i8* %96 to %"class.std::ctype"**
  %98 = load %"class.std::ctype"*, %"class.std::ctype"** %97, align 8, !tbaa !14
  %99 = icmp eq %"class.std::ctype"* %98, null
  br i1 %99, label %100, label %101

100:                                              ; preds = %89
  call void @_ZSt16__throw_bad_castv() #10
  unreachable

101:                                              ; preds = %89
  %102 = getelementptr inbounds %"class.std::ctype", %"class.std::ctype"* %98, i64 0, i32 8
  %103 = load i8, i8* %102, align 8, !tbaa !18
  %104 = icmp eq i8 %103, 0
  br i1 %104, label %108, label %105

105:                                              ; preds = %101
  %106 = getelementptr inbounds %"class.std::ctype", %"class.std::ctype"* %98, i64 0, i32 9, i64 10
  %107 = load i8, i8* %106, align 1, !tbaa !9
  br label %114

108:                                              ; preds = %101
  call void @_ZNKSt5ctypeIcE13_M_widen_initEv(%"class.std::ctype"* nonnull align 8 dereferenceable(570) %98)
  %109 = bitcast %"class.std::ctype"* %98 to i8 (%"class.std::ctype"*, i8)***
  %110 = load i8 (%"class.std::ctype"*, i8)**, i8 (%"class.std::ctype"*, i8)*** %109, align 8, !tbaa !12
  %111 = getelementptr inbounds i8 (%"class.std::ctype"*, i8)*, i8 (%"class.std::ctype"*, i8)** %110, i64 6
  %112 = load i8 (%"class.std::ctype"*, i8)*, i8 (%"class.std::ctype"*, i8)** %111, align 8
  %113 = call signext i8 %112(%"class.std::ctype"* nonnull align 8 dereferenceable(570) %98, i8 signext 10)
  br label %114

114:                                              ; preds = %105, %108
  %115 = phi i8 [ %107, %105 ], [ %113, %108 ]
  %116 = call nonnull align 8 dereferenceable(8) %"class.std::basic_ostream"* @_ZNSo3putEc(%"class.std::basic_ostream"* nonnull align 8 dereferenceable(8) @_ZSt4cout, i8 signext %115)
  %117 = call nonnull align 8 dereferenceable(8) %"class.std::basic_ostream"* @_ZNSo5flushEv(%"class.std::basic_ostream"* nonnull align 8 dereferenceable(8) %116)
  br label %118

118:                                              ; preds = %80, %114
  %119 = add nuw i32 %11, 1
  %120 = load i32, i32* %3, align 4, !tbaa !5
  %121 = icmp ult i32 %119, %120
  br i1 %121, label %9, label %122, !llvm.loop !21

122:                                              ; preds = %118, %0
  call void @llvm.lifetime.end.p0i8(i64 4, i8* nonnull %5) #8
  call void @llvm.lifetime.end.p0i8(i64 100, i8* nonnull %4) #8
  ret i32 0
}

; Function Attrs: argmemonly mustprogress nofree nosync nounwind willreturn
declare void @llvm.lifetime.start.p0i8(i64 immarg, i8* nocapture) #4

; Function Attrs: argmemonly mustprogress nofree nounwind readonly willreturn
declare i64 @strlen(i8* nocapture) local_unnamed_addr #5

; Function Attrs: argmemonly mustprogress nofree nosync nounwind willreturn
declare void @llvm.lifetime.end.p0i8(i64 immarg, i8* nocapture) #4

declare nonnull align 8 dereferenceable(16) %"class.std::basic_istream"* @_ZNSi10_M_extractIjEERSiRT_(%"class.std::basic_istream"* nonnull align 8 dereferenceable(16), i32* nonnull align 4 dereferenceable(4)) local_unnamed_addr #0

declare void @_ZSt17__istream_extractRSiPcl(%"class.std::basic_istream"* nonnull align 8 dereferenceable(16), i8*, i64) local_unnamed_addr #0

declare nonnull align 8 dereferenceable(8) %"class.std::basic_ostream"* @_ZSt16__ostream_insertIcSt11char_traitsIcEERSt13basic_ostreamIT_T0_ES6_PKS3_l(%"class.std::basic_ostream"* nonnull align 8 dereferenceable(8), i8*, i64) local_unnamed_addr #0

declare nonnull align 8 dereferenceable(8) %"class.std::basic_ostream"* @_ZNSo3putEc(%"class.std::basic_ostream"* nonnull align 8 dereferenceable(8), i8 signext) local_unnamed_addr #0

declare nonnull align 8 dereferenceable(8) %"class.std::basic_ostream"* @_ZNSo5flushEv(%"class.std::basic_ostream"* nonnull align 8 dereferenceable(8)) local_unnamed_addr #0

; Function Attrs: noreturn
declare void @_ZSt16__throw_bad_castv() local_unnamed_addr #6

declare void @_ZNKSt5ctypeIcE13_M_widen_initEv(%"class.std::ctype"* nonnull align 8 dereferenceable(570)) local_unnamed_addr #0

; Function Attrs: sspstrong uwtable
define internal void @_GLOBAL__sub_I_531.cpp() #7 section ".text.startup" {
  tail call void @_ZNSt8ios_base4InitC1Ev(%"class.std::ios_base::Init"* nonnull align 1 dereferenceable(1) @_ZStL8__ioinit)
  %1 = tail call i32 @__cxa_atexit(void (i8*)* bitcast (void (%"class.std::ios_base::Init"*)* @_ZNSt8ios_base4InitD1Ev to void (i8*)*), i8* getelementptr inbounds (%"class.std::ios_base::Init", %"class.std::ios_base::Init"* @_ZStL8__ioinit, i64 0, i32 0), i8* nonnull @__dso_handle) #8
  ret void
}


!llvm.module.flags = !{!0, !1, !2, !3}
!llvm.ident = !{!4}

!0 = !{i32 1, !"wchar_size", i32 4}
!1 = !{i32 7, !"PIC Level", i32 2}
!2 = !{i32 7, !"PIE Level", i32 2}
!3 = !{i32 7, !"uwtable", i32 1}
!4 = !{!"clang version 13.0.0"}
!5 = !{!6, !6, i64 0}
!6 = !{!"int", !7, i64 0}
!7 = !{!"omnipotent char", !8, i64 0}
!8 = !{!"Simple C++ TBAA"}
!9 = !{!7, !7, i64 0}
!10 = distinct !{!10, !11}
!11 = !{!"llvm.loop.mustprogress"}
!12 = !{!13, !13, i64 0}
!13 = !{!"vtable pointer", !8, i64 0}
!14 = !{!15, !16, i64 240}
!15 = !{!"_ZTSSt9basic_iosIcSt11char_traitsIcEE", !16, i64 216, !7, i64 224, !17, i64 225, !16, i64 232, !16, i64 240, !16, i64 248, !16, i64 256}
!16 = !{!"any pointer", !7, i64 0}
!17 = !{!"bool", !7, i64 0}
!18 = !{!19, !7, i64 56}
!19 = !{!"_ZTSSt5ctypeIcE", !16, i64 16, !17, i64 24, !16, i64 32, !16, i64 40, !16, i64 48, !7, i64 56, !7, i64 57, !7, i64 313, !7, i64 569}
!20 = distinct !{!20, !11}
!21 = distinct !{!21, !11}
